; Function Attrs: mustprogress nofree nounwind willreturn memory(write, argmem: readwrite) uwtable
define noundef zeroext i1 @_ZNK13b2CircleShape7RayCastEP15b2RayCastOutputRK14b2RayCastInputRK11b2Transformi(ptr nocapture noundef nonnull readonly align 8 dereferenceable(24) %this, ptr nocapture noundef writeonly %output, ptr nocapture noundef nonnull readonly align 4 dereferenceable(20) %input, ptr nocapture noundef nonnull readonly align 4 dereferenceable(16) %transform, i32 %childIndex) unnamed_addr #4 align 2 {
entry:
  %q = getelementptr inbounds i8, ptr %transform, i64 8
  %m_p = getelementptr inbounds i8, ptr %this, i64 16
  %0 = load float, ptr %m_p, align 8
  %y.i = getelementptr inbounds i8, ptr %this, i64 20
  %1 = load float, ptr %y.i, align 4
  %m_radius = getelementptr inbounds i8, ptr %this, i64 12
  %2 = load float, ptr %m_radius, align 4
  %neg = fneg float %2
  %p2 = getelementptr inbounds i8, ptr %input, i64 8
  %3 = load <2 x float>, ptr %q, align 4
  %4 = shufflevector <2 x float> %3, <2 x float> poison, <2 x i32> <i32 1, i32 0>
  %5 = extractelement <2 x float> %3, i64 0
  %6 = fneg float %5
  %7 = insertelement <2 x float> poison, float %1, i64 0
  %8 = shufflevector <2 x float> %7, <2 x float> poison, <2 x i32> zeroinitializer
  %9 = insertelement <2 x float> %3, float %6, i64 0
  %10 = fmul <2 x float> %8, %9
  %11 = insertelement <2 x float> poison, float %0, i64 0
  %12 = shufflevector <2 x float> %11, <2 x float> poison, <2 x i32> zeroinitializer
  %13 = tail call <2 x float> @llvm.fmuladd.v2f32(<2 x float> %4, <2 x float> %12, <2 x float> %10)
  %14 = load <2 x float>, ptr %transform, align 4
  %15 = fadd <2 x float> %14, %13
  %16 = load <2 x float>, ptr %input, align 4
  %17 = fsub <2 x float> %16, %15
  %18 = extractelement <2 x float> %17, i64 1
  %mul3.i = fmul float %18, %18
  %19 = extractelement <2 x float> %17, i64 0
  %20 = tail call noundef float @llvm.fmuladd.f32(float %19, float %19, float %mul3.i)
  %21 = tail call float @llvm.fmuladd.f32(float %neg, float %2, float %20)
  %22 = load <2 x float>, ptr %p2, align 4
  %23 = fsub <2 x float> %22, %16
  %24 = extractelement <2 x float> %23, i64 1
  %mul3.i34 = fmul float %18, %24
  %25 = extractelement <2 x float> %23, i64 0
  %26 = tail call noundef float @llvm.fmuladd.f32(float %19, float %25, float %mul3.i34)
  %mul3.i37 = fmul float %24, %24
  %27 = tail call noundef float @llvm.fmuladd.f32(float %25, float %25, float %mul3.i37)
  %28 = fneg float %27
  %neg11 = fmul float %21, %28
  %29 = tail call float @llvm.fmuladd.f32(float %26, float %26, float %neg11)
  %cmp = fcmp olt float %29, 0.000000e+00
  %cmp12 = fcmp olt float %27, 0x3E80000000000000
  %or.cond = or i1 %cmp12, %cmp
  br i1 %or.cond, label %return, label %if.end

if.end:                                           ; preds = %entry
  %call13 = tail call float @sqrtf(float noundef %29) #13
  %add = fadd float %26, %call13
  %fneg = fneg float %add
  %cmp14 = fcmp ugt float %add, 0.000000e+00
  br i1 %cmp14, label %return, label %land.lhs.true

land.lhs.true:                                    ; preds = %if.end
  %maxFraction = getelementptr inbounds i8, ptr %input, i64 16
  %30 = load float, ptr %maxFraction, align 4
  %mul = fmul float %27, %30
  %cmp15 = fcmp ult float %mul, %fneg
  br i1 %cmp15, label %return, label %if.then16

if.then16:                                        ; preds = %land.lhs.true
  %div = fdiv float %fneg, %27
  %fraction = getelementptr inbounds i8, ptr %output, i64 8
  store float %div, ptr %fraction, align 4
  %31 = insertelement <2 x float> poison, float %div, i64 0
  %32 = shufflevector <2 x float> %31, <2 x float> poison, <2 x i32> zeroinitializer
  %33 = fmul <2 x float> %23, %32
  %34 = fadd <2 x float> %17, %33
  store <2 x float> %34, ptr %output, align 4
  %35 = fmul <2 x float> %34, %34
  %mul4.i.i = extractelement <2 x float> %35, i64 1
  %36 = extractelement <2 x float> %34, i64 0
  %37 = tail call float @llvm.fmuladd.f32(float %36, float %36, float %mul4.i.i)
  %sqrt.i.i = tail call noundef float @llvm.sqrt.f32(float %37)
  %cmp.i = fcmp olt float %sqrt.i.i, 0x3E80000000000000
  br i1 %cmp.i, label %return, label %if.end.i

if.end.i:                                         ; preds = %if.then16
  %div.i = fdiv float 1.000000e+00, %sqrt.i.i
  %38 = insertelement <2 x float> poison, float %div.i, i64 0
  %39 = shufflevector <2 x float> %38, <2 x float> poison, <2 x i32> zeroinitializer
  %40 = fmul <2 x float> %34, %39
  store <2 x float> %40, ptr %output, align 4
  br label %return

return:                                           ; preds = %if.end.i, %if.then16, %if.end, %land.lhs.true, %entry
  %retval.0 = phi i1 [ false, %entry ], [ false, %land.lhs.true ], [ false, %if.end ], [ true, %if.then16 ], [ true, %if.end.i ]
  ret i1 %retval.0
}